target datalayout = "e-m:e-p270:32:32-p271:32:32-p272:64:64-i64:64-i128:128-f80:128-n8:16:32:64-S128"
target triple = "x86_64-pc-linux-gnu"

%struct.AVCodecContext = type { ptr, i32, i32, ptr, i32, i32, ptr, ptr, ptr, i64, i32, i32, ptr, i32, %struct.AVRational, %struct.AVRational, %struct.AVRational, i32, i32, i32, i32, i32, %struct.AVRational, i32, i32, i32, i32, i32, i32, i32, i32, i32, i32, i32, ptr, ptr, i32, float, float, float, float, float, float, float, float, float, i32, i32, i32, i32, i32, i32, i32, i32, i32, i32, i32, i32, ptr, ptr, ptr, i32, i32, i32, i32, i32, i32, i32, i32, i32, i32, %struct.AVChannelLayout, i32, i32, i32, i32, i32, i32, i32, i32, ptr, i32, i32, i32, float, float, i32, i32, i32, i32, i32, ptr, i64, i64, float, float, i32, i32, ptr, ptr, i32, i32, i32, i32, i32, ptr, ptr, ptr, ptr, i32, i32, [8 x i64], i32, i32, i32, i32, i32, i32, i32, ptr, ptr, i32, i32, i32, i32, i32, i32, i32, i32, i32, i32, ptr, ptr, i32, i32, ptr, ptr, ptr, ptr, i32, i32, i64, i32, i32, i64, ptr, i64, ptr, i32, ptr, i32 }
%struct.AVRational = type { i32, i32 }
%struct.AVChannelLayout = type { i32, i32, %union.anon.0, ptr }
%union.anon.0 = type { i64 }
%struct.CinepakContext = type { ptr, ptr, ptr, i32, i32, i32, i32, [32 x %struct.cvid_strip], i32, [256 x i32] }
%struct.cvid_strip = type { i16, i16, i16, i16, i16, [256 x [12 x i8]], [256 x [12 x i8]] }

; Function Attrs: cold nounwind optsize uwtable
define internal i32 @cinepak_decode_init(ptr noundef %0) #0 {
  %2 = alloca i32, align 4
  %3 = alloca ptr, align 8
  %4 = alloca ptr, align 8
  %5 = alloca i32, align 4
  store ptr %0, ptr %3, align 8, !tbaa !4
  call void @llvm.lifetime.start.p0(i64 8, ptr %4) #6
  %6 = load ptr, ptr %3, align 8, !tbaa !4
  %7 = getelementptr inbounds nuw %struct.AVCodecContext, ptr %6, i32 0, i32 6
  %8 = load ptr, ptr %7, align 8, !tbaa !9
  store ptr %8, ptr %4, align 8, !tbaa !29
  %9 = load ptr, ptr %3, align 8, !tbaa !4
  %10 = load ptr, ptr %4, align 8, !tbaa !29
  %11 = getelementptr inbounds nuw %struct.CinepakContext, ptr %10, i32 0, i32 0
  store ptr %9, ptr %11, align 8, !tbaa !31
  %12 = load ptr, ptr %3, align 8, !tbaa !4
  %13 = getelementptr inbounds nuw %struct.AVCodecContext, ptr %12, i32 0, i32 18
  %14 = load i32, ptr %13, align 8, !tbaa !34
  %15 = add nsw i32 %14, 3
  %16 = and i32 %15, -4
  %17 = load ptr, ptr %4, align 8, !tbaa !29
  %18 = getelementptr inbounds nuw %struct.CinepakContext, ptr %17, i32 0, i32 4
  store i32 %16, ptr %18, align 4, !tbaa !35
  %19 = load ptr, ptr %3, align 8, !tbaa !4
  %20 = getelementptr inbounds nuw %struct.AVCodecContext, ptr %19, i32 0, i32 19
  %21 = load i32, ptr %20, align 4, !tbaa !36
  %22 = add nsw i32 %21, 3
  %23 = and i32 %22, -4
  %24 = load ptr, ptr %4, align 8, !tbaa !29
  %25 = getelementptr inbounds nuw %struct.CinepakContext, ptr %24, i32 0, i32 5
  store i32 %23, ptr %25, align 8, !tbaa !37
  %26 = load ptr, ptr %4, align 8, !tbaa !29
  %27 = getelementptr inbounds nuw %struct.CinepakContext, ptr %26, i32 0, i32 8
  store i32 -1, ptr %27, align 8, !tbaa !38
  %28 = load ptr, ptr %3, align 8, !tbaa !4
  %29 = getelementptr inbounds nuw %struct.AVCodecContext, ptr %28, i32 0, i32 114
  %30 = load i32, ptr %29, align 8, !tbaa !39
  %31 = icmp ne i32 %30, 8
  br i1 %31, label %32, label %37

32:                                               ; preds = %1
  %33 = load ptr, ptr %4, align 8, !tbaa !29
  %34 = getelementptr inbounds nuw %struct.CinepakContext, ptr %33, i32 0, i32 6
  store i32 0, ptr %34, align 4, !tbaa !40
  %35 = load ptr, ptr %3, align 8, !tbaa !4
  %36 = getelementptr inbounds nuw %struct.AVCodecContext, ptr %35, i32 0, i32 23
  store i32 2, ptr %36, align 8, !tbaa !41
  br label %42

37:                                               ; preds = %1
  %38 = load ptr, ptr %4, align 8, !tbaa !29
  %39 = getelementptr inbounds nuw %struct.CinepakContext, ptr %38, i32 0, i32 6
  store i32 1, ptr %39, align 4, !tbaa !40
  %40 = load ptr, ptr %3, align 8, !tbaa !4
  %41 = getelementptr inbounds nuw %struct.AVCodecContext, ptr %40, i32 0, i32 23
  store i32 11, ptr %41, align 8, !tbaa !41
  br label %42

42:                                               ; preds = %37, %32
  %43 = call ptr @av_frame_alloc()
  %44 = load ptr, ptr %4, align 8, !tbaa !29
  %45 = getelementptr inbounds nuw %struct.CinepakContext, ptr %44, i32 0, i32 1
  store ptr %43, ptr %45, align 8, !tbaa !42
  %46 = load ptr, ptr %4, align 8, !tbaa !29
  %47 = getelementptr inbounds nuw %struct.CinepakContext, ptr %46, i32 0, i32 1
  %48 = load ptr, ptr %47, align 8, !tbaa !42
  %49 = icmp ne ptr %48, null
  br i1 %49, label %51, label %50

50:                                               ; preds = %42
  store i32 -12, ptr %2, align 4
  store i32 1, ptr %5, align 4
  br label %52

51:                                               ; preds = %42
  store i32 0, ptr %2, align 4
  store i32 1, ptr %5, align 4
  br label %52

52:                                               ; preds = %51, %50
  call void @llvm.lifetime.end.p0(i64 8, ptr %4) #6
  %53 = load i32, ptr %2, align 4
  ret i32 %53
}