; Function Attrs: cold nounwind optsize uwtable
define internal range(i32 -12, 1) i32 @cinepak_decode_init(ptr noundef %0) #0 {
  %2 = getelementptr inbounds nuw i8, ptr %0, i64 32
  %3 = load ptr, ptr %2, align 8, !tbaa !4
  store ptr %0, ptr %3, align 8, !tbaa !27
  %4 = getelementptr inbounds nuw i8, ptr %0, i64 112
  %5 = load i32, ptr %4, align 8, !tbaa !31
  %6 = add nsw i32 %5, 3
  %7 = and i32 %6, -4
  %8 = getelementptr inbounds nuw i8, ptr %3, i64 28
  store i32 %7, ptr %8, align 4, !tbaa !32
  %9 = getelementptr inbounds nuw i8, ptr %0, i64 116
  %10 = load i32, ptr %9, align 4, !tbaa !33
  %11 = add nsw i32 %10, 3
  %12 = and i32 %11, -4
  %13 = getelementptr inbounds nuw i8, ptr %3, i64 32
  store i32 %12, ptr %13, align 8, !tbaa !34
  %14 = getelementptr inbounds nuw i8, ptr %3, i64 196968
  store i32 -1, ptr %14, align 8, !tbaa !35
  %15 = getelementptr inbounds nuw i8, ptr %0, i64 648
  %16 = load i32, ptr %15, align 8, !tbaa !36
  %.not = icmp eq i32 %16, 8
  %spec.select = zext i1 %.not to i32
  %spec.select17 = select i1 %.not, i32 11, i32 2
  %17 = getelementptr inbounds nuw i8, ptr %3, i64 36
  store i32 %spec.select, ptr %17, align 4, !tbaa !37
  %18 = getelementptr inbounds nuw i8, ptr %0, i64 136
  store i32 %spec.select17, ptr %18, align 8, !tbaa !38
  %19 = tail call ptr @av_frame_alloc() #6
  %20 = getelementptr inbounds nuw i8, ptr %3, i64 8
  store ptr %19, ptr %20, align 8, !tbaa !39
  %.not15 = icmp eq ptr %19, null
  %. = select i1 %.not15, i32 -12, i32 0
  ret i32 %.
}